;--------------------------------------------------------
; File Created by SDCC : free open source ANSI-C Compiler
; Version 4.1.0 #12072 (MINGW64)
;--------------------------------------------------------
	.module program
	.optsdcc -mmcs51 --model-large
	
;--------------------------------------------------------
; Public variables in this module
;--------------------------------------------------------
	.globl __sdcc_external_startup
	.globl _idle_interrupt
	.globl _pca_interrupt
	.globl _main
	.globl _eeprom_menu
	.globl _asm_clang
	.globl _user_interface_heap
	.globl _getchar
	.globl _user_interface_PCA
	.globl _printf
	.globl _TF1
	.globl _TR1
	.globl _TF0
	.globl _TR0
	.globl _IE1
	.globl _IT1
	.globl _IE0
	.globl _IT0
	.globl _SM0
	.globl _SM1
	.globl _SM2
	.globl _REN
	.globl _TB8
	.globl _RB8
	.globl _TI
	.globl _RI
	.globl _CY
	.globl _AC
	.globl _F0
	.globl _RS1
	.globl _RS0
	.globl _OV
	.globl _F1
	.globl _P
	.globl _RD
	.globl _WR
	.globl _T1
	.globl _T0
	.globl _INT1
	.globl _INT0
	.globl _TXD0
	.globl _TXD
	.globl _RXD0
	.globl _RXD
	.globl _P3_7
	.globl _P3_6
	.globl _P3_5
	.globl _P3_4
	.globl _P3_3
	.globl _P3_2
	.globl _P3_1
	.globl _P3_0
	.globl _P2_7
	.globl _P2_6
	.globl _P2_5
	.globl _P2_4
	.globl _P2_3
	.globl _P2_2
	.globl _P2_1
	.globl _P2_0
	.globl _P1_7
	.globl _P1_6
	.globl _P1_5
	.globl _P1_4
	.globl _P1_3
	.globl _P1_2
	.globl _P1_1
	.globl _P1_0
	.globl _P0_7
	.globl _P0_6
	.globl _P0_5
	.globl _P0_4
	.globl _P0_3
	.globl _P0_2
	.globl _P0_1
	.globl _P0_0
	.globl _PS
	.globl _PT1
	.globl _PX1
	.globl _PT0
	.globl _PX0
	.globl _EA
	.globl _ES
	.globl _ET1
	.globl _EX1
	.globl _ET0
	.globl _EX0
	.globl _BREG_F7
	.globl _BREG_F6
	.globl _BREG_F5
	.globl _BREG_F4
	.globl _BREG_F3
	.globl _BREG_F2
	.globl _BREG_F1
	.globl _BREG_F0
	.globl _P5_7
	.globl _P5_6
	.globl _P5_5
	.globl _P5_4
	.globl _P5_3
	.globl _P5_2
	.globl _P5_1
	.globl _P5_0
	.globl _P4_7
	.globl _P4_6
	.globl _P4_5
	.globl _P4_4
	.globl _P4_3
	.globl _P4_2
	.globl _P4_1
	.globl _P4_0
	.globl _PX0L
	.globl _PT0L
	.globl _PX1L
	.globl _PT1L
	.globl _PSL
	.globl _PT2L
	.globl _PPCL
	.globl _EC
	.globl _CCF0
	.globl _CCF1
	.globl _CCF2
	.globl _CCF3
	.globl _CCF4
	.globl _CR
	.globl _CF
	.globl _TF2
	.globl _EXF2
	.globl _RCLK
	.globl _TCLK
	.globl _EXEN2
	.globl _TR2
	.globl _C_T2
	.globl _CP_RL2
	.globl _T2CON_7
	.globl _T2CON_6
	.globl _T2CON_5
	.globl _T2CON_4
	.globl _T2CON_3
	.globl _T2CON_2
	.globl _T2CON_1
	.globl _T2CON_0
	.globl _PT2
	.globl _ET2
	.globl __AUXR
	.globl _TMOD
	.globl _TL1
	.globl _TL0
	.globl _TH1
	.globl _TH0
	.globl _TCON
	.globl _SP
	.globl _SCON
	.globl _SBUF0
	.globl _SBUF
	.globl _PSW
	.globl _PCON
	.globl _P3
	.globl _P2
	.globl _P1
	.globl _P0
	.globl _IP
	.globl _IE
	.globl _DP0L
	.globl _DPL
	.globl _DP0H
	.globl _DPH
	.globl _B
	.globl _ACC
	.globl _EECON
	.globl _KBF
	.globl _KBE
	.globl _KBLS
	.globl _BRL
	.globl _BDRCON
	.globl _T2MOD
	.globl _SPDAT
	.globl _SPSTA
	.globl _SPCON
	.globl _SADEN
	.globl _SADDR
	.globl _WDTPRG
	.globl _WDTRST
	.globl _P5
	.globl _P4
	.globl _IPH1
	.globl _IPL1
	.globl _IPH0
	.globl _IPL0
	.globl _IEN1
	.globl _IEN0
	.globl _CMOD
	.globl _CL
	.globl _CH
	.globl _CCON
	.globl _CCAPM4
	.globl _CCAPM3
	.globl _CCAPM2
	.globl _CCAPM1
	.globl _CCAPM0
	.globl _CCAP4L
	.globl _CCAP3L
	.globl _CCAP2L
	.globl _CCAP1L
	.globl _CCAP0L
	.globl _CCAP4H
	.globl _CCAP3H
	.globl _CCAP2H
	.globl _CCAP1H
	.globl _CCAP0H
	.globl _CKCON1
	.globl _CKCON0
	.globl _CKRL
	.globl _AUXR1
	.globl _AUXR
	.globl _TH2
	.globl _TL2
	.globl _RCAP2H
	.globl _RCAP2L
	.globl _T2CON
	.globl _global_var_test
	.globl _DEBUG_LOC
	.globl _main_menu
	.globl _dataout
;--------------------------------------------------------
; special function registers
;--------------------------------------------------------
	.area RSEG    (ABS,DATA)
	.org 0x0000
_T2CON	=	0x00c8
_RCAP2L	=	0x00ca
_RCAP2H	=	0x00cb
_TL2	=	0x00cc
_TH2	=	0x00cd
_AUXR	=	0x008e
_AUXR1	=	0x00a2
_CKRL	=	0x0097
_CKCON0	=	0x008f
_CKCON1	=	0x00af
_CCAP0H	=	0x00fa
_CCAP1H	=	0x00fb
_CCAP2H	=	0x00fc
_CCAP3H	=	0x00fd
_CCAP4H	=	0x00fe
_CCAP0L	=	0x00ea
_CCAP1L	=	0x00eb
_CCAP2L	=	0x00ec
_CCAP3L	=	0x00ed
_CCAP4L	=	0x00ee
_CCAPM0	=	0x00da
_CCAPM1	=	0x00db
_CCAPM2	=	0x00dc
_CCAPM3	=	0x00dd
_CCAPM4	=	0x00de
_CCON	=	0x00d8
_CH	=	0x00f9
_CL	=	0x00e9
_CMOD	=	0x00d9
_IEN0	=	0x00a8
_IEN1	=	0x00b1
_IPL0	=	0x00b8
_IPH0	=	0x00b7
_IPL1	=	0x00b2
_IPH1	=	0x00b3
_P4	=	0x00c0
_P5	=	0x00e8
_WDTRST	=	0x00a6
_WDTPRG	=	0x00a7
_SADDR	=	0x00a9
_SADEN	=	0x00b9
_SPCON	=	0x00c3
_SPSTA	=	0x00c4
_SPDAT	=	0x00c5
_T2MOD	=	0x00c9
_BDRCON	=	0x009b
_BRL	=	0x009a
_KBLS	=	0x009c
_KBE	=	0x009d
_KBF	=	0x009e
_EECON	=	0x00d2
_ACC	=	0x00e0
_B	=	0x00f0
_DPH	=	0x0083
_DP0H	=	0x0083
_DPL	=	0x0082
_DP0L	=	0x0082
_IE	=	0x00a8
_IP	=	0x00b8
_P0	=	0x0080
_P1	=	0x0090
_P2	=	0x00a0
_P3	=	0x00b0
_PCON	=	0x0087
_PSW	=	0x00d0
_SBUF	=	0x0099
_SBUF0	=	0x0099
_SCON	=	0x0098
_SP	=	0x0081
_TCON	=	0x0088
_TH0	=	0x008c
_TH1	=	0x008d
_TL0	=	0x008a
_TL1	=	0x008b
_TMOD	=	0x0089
__AUXR	=	0x008e
;--------------------------------------------------------
; special function bits
;--------------------------------------------------------
	.area RSEG    (ABS,DATA)
	.org 0x0000
_ET2	=	0x00ad
_PT2	=	0x00bd
_T2CON_0	=	0x00c8
_T2CON_1	=	0x00c9
_T2CON_2	=	0x00ca
_T2CON_3	=	0x00cb
_T2CON_4	=	0x00cc
_T2CON_5	=	0x00cd
_T2CON_6	=	0x00ce
_T2CON_7	=	0x00cf
_CP_RL2	=	0x00c8
_C_T2	=	0x00c9
_TR2	=	0x00ca
_EXEN2	=	0x00cb
_TCLK	=	0x00cc
_RCLK	=	0x00cd
_EXF2	=	0x00ce
_TF2	=	0x00cf
_CF	=	0x00df
_CR	=	0x00de
_CCF4	=	0x00dc
_CCF3	=	0x00db
_CCF2	=	0x00da
_CCF1	=	0x00d9
_CCF0	=	0x00d8
_EC	=	0x00ae
_PPCL	=	0x00be
_PT2L	=	0x00bd
_PSL	=	0x00bc
_PT1L	=	0x00bb
_PX1L	=	0x00ba
_PT0L	=	0x00b9
_PX0L	=	0x00b8
_P4_0	=	0x00c0
_P4_1	=	0x00c1
_P4_2	=	0x00c2
_P4_3	=	0x00c3
_P4_4	=	0x00c4
_P4_5	=	0x00c5
_P4_6	=	0x00c6
_P4_7	=	0x00c7
_P5_0	=	0x00e8
_P5_1	=	0x00e9
_P5_2	=	0x00ea
_P5_3	=	0x00eb
_P5_4	=	0x00ec
_P5_5	=	0x00ed
_P5_6	=	0x00ee
_P5_7	=	0x00ef
_BREG_F0	=	0x00f0
_BREG_F1	=	0x00f1
_BREG_F2	=	0x00f2
_BREG_F3	=	0x00f3
_BREG_F4	=	0x00f4
_BREG_F5	=	0x00f5
_BREG_F6	=	0x00f6
_BREG_F7	=	0x00f7
_EX0	=	0x00a8
_ET0	=	0x00a9
_EX1	=	0x00aa
_ET1	=	0x00ab
_ES	=	0x00ac
_EA	=	0x00af
_PX0	=	0x00b8
_PT0	=	0x00b9
_PX1	=	0x00ba
_PT1	=	0x00bb
_PS	=	0x00bc
_P0_0	=	0x0080
_P0_1	=	0x0081
_P0_2	=	0x0082
_P0_3	=	0x0083
_P0_4	=	0x0084
_P0_5	=	0x0085
_P0_6	=	0x0086
_P0_7	=	0x0087
_P1_0	=	0x0090
_P1_1	=	0x0091
_P1_2	=	0x0092
_P1_3	=	0x0093
_P1_4	=	0x0094
_P1_5	=	0x0095
_P1_6	=	0x0096
_P1_7	=	0x0097
_P2_0	=	0x00a0
_P2_1	=	0x00a1
_P2_2	=	0x00a2
_P2_3	=	0x00a3
_P2_4	=	0x00a4
_P2_5	=	0x00a5
_P2_6	=	0x00a6
_P2_7	=	0x00a7
_P3_0	=	0x00b0
_P3_1	=	0x00b1
_P3_2	=	0x00b2
_P3_3	=	0x00b3
_P3_4	=	0x00b4
_P3_5	=	0x00b5
_P3_6	=	0x00b6
_P3_7	=	0x00b7
_RXD	=	0x00b0
_RXD0	=	0x00b0
_TXD	=	0x00b1
_TXD0	=	0x00b1
_INT0	=	0x00b2
_INT1	=	0x00b3
_T0	=	0x00b4
_T1	=	0x00b5
_WR	=	0x00b6
_RD	=	0x00b7
_P	=	0x00d0
_F1	=	0x00d1
_OV	=	0x00d2
_RS0	=	0x00d3
_RS1	=	0x00d4
_F0	=	0x00d5
_AC	=	0x00d6
_CY	=	0x00d7
_RI	=	0x0098
_TI	=	0x0099
_RB8	=	0x009a
_TB8	=	0x009b
_REN	=	0x009c
_SM2	=	0x009d
_SM1	=	0x009e
_SM0	=	0x009f
_IT0	=	0x0088
_IE0	=	0x0089
_IT1	=	0x008a
_IE1	=	0x008b
_TR0	=	0x008c
_TF0	=	0x008d
_TR1	=	0x008e
_TF1	=	0x008f
;--------------------------------------------------------
; overlayable register banks
;--------------------------------------------------------
	.area REG_BANK_0	(REL,OVR,DATA)
	.ds 8
	.area REG_BANK_1	(REL,OVR,DATA)
	.ds 8
;--------------------------------------------------------
; overlayable bit register bank
;--------------------------------------------------------
	.area BIT_BANK	(REL,OVR,DATA)
bits:
	.ds 1
	b0 = bits[0]
	b1 = bits[1]
	b2 = bits[2]
	b3 = bits[3]
	b4 = bits[4]
	b5 = bits[5]
	b6 = bits[6]
	b7 = bits[7]
;--------------------------------------------------------
; internal ram data
;--------------------------------------------------------
	.area DSEG    (DATA)
;--------------------------------------------------------
; overlayable items in internal ram 
;--------------------------------------------------------
;--------------------------------------------------------
; Stack segment in internal ram 
;--------------------------------------------------------
	.area	SSEG
__start__stack:
	.ds	1

;--------------------------------------------------------
; indirectly addressable internal ram data
;--------------------------------------------------------
	.area ISEG    (DATA)
;--------------------------------------------------------
; absolute internal ram data
;--------------------------------------------------------
	.area IABS    (ABS,DATA)
	.area IABS    (ABS,DATA)
;--------------------------------------------------------
; bit data
;--------------------------------------------------------
	.area BSEG    (BIT)
;--------------------------------------------------------
; paged external ram data
;--------------------------------------------------------
	.area PSEG    (PAG,XDATA)
;--------------------------------------------------------
; external ram data
;--------------------------------------------------------
	.area XSEG    (XDATA)
_DEBUG_LOC	=	0x8000
_dataout_data_65536_56:
	.ds 1
;--------------------------------------------------------
; absolute external ram data
;--------------------------------------------------------
	.area XABS    (ABS,XDATA)
;--------------------------------------------------------
; external initialized ram data
;--------------------------------------------------------
	.area XISEG   (XDATA)
_global_var_test::
	.ds 1
	.area HOME    (CODE)
	.area GSINIT0 (CODE)
	.area GSINIT1 (CODE)
	.area GSINIT2 (CODE)
	.area GSINIT3 (CODE)
	.area GSINIT4 (CODE)
	.area GSINIT5 (CODE)
	.area GSINIT  (CODE)
	.area GSFINAL (CODE)
	.area CSEG    (CODE)
;--------------------------------------------------------
; interrupt vector 
;--------------------------------------------------------
	.area HOME    (CODE)
__interrupt_vect:
	ljmp	__sdcc_gsinit_startup
	ljmp	_idle_interrupt
	.ds	5
	reti
	.ds	7
	reti
	.ds	7
	reti
	.ds	7
	reti
	.ds	7
	reti
	.ds	7
	ljmp	_pca_interrupt
;--------------------------------------------------------
; global & static initialisations
;--------------------------------------------------------
	.area HOME    (CODE)
	.area GSINIT  (CODE)
	.area GSFINAL (CODE)
	.area GSINIT  (CODE)
	.globl __sdcc_gsinit_startup
	.globl __sdcc_program_startup
	.globl __start__stack
	.globl __mcs51_genXINIT
	.globl __mcs51_genXRAMCLEAR
	.globl __mcs51_genRAMCLEAR
	.area GSFINAL (CODE)
	ljmp	__sdcc_program_startup
;--------------------------------------------------------
; Home
;--------------------------------------------------------
	.area HOME    (CODE)
	.area HOME    (CODE)
__sdcc_program_startup:
	ljmp	_main
;	return from main will return to caller
;--------------------------------------------------------
; code
;--------------------------------------------------------
	.area CSEG    (CODE)
;------------------------------------------------------------
;Allocation info for local variables in function 'main'
;------------------------------------------------------------
;	program.c:44: void main(void)
;	-----------------------------------------
;	 function main
;	-----------------------------------------
_main:
	ar7 = 0x07
	ar6 = 0x06
	ar5 = 0x05
	ar4 = 0x04
	ar3 = 0x03
	ar2 = 0x02
	ar1 = 0x01
	ar0 = 0x00
;	program.c:46: printf("\n\r HELLO! Started in X2 Mode \n\r");
	mov	a,#___str_0
	push	acc
	mov	a,#(___str_0 >> 8)
	push	acc
	mov	a,#0x80
	push	acc
	lcall	_printf
	dec	sp
	dec	sp
	dec	sp
;	program.c:47: DEBUGPORT(0x01);
	mov	dpl,#0x01
	lcall	_dataout
;	program.c:48: P1_1 = 0;
;	assignBit
	clr	_P1_1
;	program.c:49: main_menu();
;	program.c:50: }
	ljmp	_main_menu
;------------------------------------------------------------
;Allocation info for local variables in function 'main_menu'
;------------------------------------------------------------
;inp                       Allocated with name '_main_menu_inp_65537_49'
;------------------------------------------------------------
;	program.c:52: void main_menu()
;	-----------------------------------------
;	 function main_menu
;	-----------------------------------------
_main_menu:
;	program.c:54: DEBUGPORT(0x02);
	mov	dpl,#0x02
	lcall	_dataout
;	program.c:55: printf("\n\n\r^^^^^^^^^^^^^^^^^^^-MENU-^^^^^^^^^^^^^^^^^^^^^^^^^^ \n\n\r");
	mov	a,#___str_1
	push	acc
	mov	a,#(___str_1 >> 8)
	push	acc
	mov	a,#0x80
	push	acc
	lcall	_printf
	dec	sp
	dec	sp
	dec	sp
;	program.c:56: printf("'H' -> Heap Demo Mode \n\r");
	mov	a,#___str_2
	push	acc
	mov	a,#(___str_2 >> 8)
	push	acc
	mov	a,#0x80
	push	acc
	lcall	_printf
	dec	sp
	dec	sp
	dec	sp
;	program.c:57: printf("'P' -> PCA Demo Mode \n\r");
	mov	a,#___str_3
	push	acc
	mov	a,#(___str_3 >> 8)
	push	acc
	mov	a,#0x80
	push	acc
	lcall	_printf
	dec	sp
	dec	sp
	dec	sp
;	program.c:58: printf("'A' -> Assembly C Mix \n\r");
	mov	a,#___str_4
	push	acc
	mov	a,#(___str_4 >> 8)
	push	acc
	mov	a,#0x80
	push	acc
	lcall	_printf
	dec	sp
	dec	sp
	dec	sp
;	program.c:59: printf("'E' -> EEPROM Mode \n\r");
	mov	a,#___str_5
	push	acc
	mov	a,#(___str_5 >> 8)
	push	acc
	mov	a,#0x80
	push	acc
	lcall	_printf
	dec	sp
	dec	sp
	dec	sp
;	program.c:60: printf("'I' -> I/O Expander Demo Mode \n\r");
	mov	a,#___str_6
	push	acc
	mov	a,#(___str_6 >> 8)
	push	acc
	mov	a,#0x80
	push	acc
	lcall	_printf
	dec	sp
	dec	sp
	dec	sp
;	program.c:61: printf("'L' -> LCD Demo Mode \n\r");
	mov	a,#___str_7
	push	acc
	mov	a,#(___str_7 >> 8)
	push	acc
	mov	a,#0x80
	push	acc
	lcall	_printf
	dec	sp
	dec	sp
	dec	sp
;	program.c:64: wrong_choice:
00101$:
;	program.c:65: printf("Please make a valid choice \n\r");
	mov	a,#___str_8
	push	acc
	mov	a,#(___str_8 >> 8)
	push	acc
	mov	a,#0x80
	push	acc
	lcall	_printf
	dec	sp
	dec	sp
	dec	sp
;	program.c:66: inp = getchar();
	lcall	_getchar
	mov	r6,dpl
	mov	r7,dph
;	program.c:67: if (inp == 0x48)
	cjne	r6,#0x48,00112$
	cjne	r7,#0x00,00112$
;	program.c:68: user_interface_heap();
	ljmp	_user_interface_heap
00112$:
;	program.c:69: else if (inp == 0x50)
	cjne	r6,#0x50,00109$
	cjne	r7,#0x00,00109$
;	program.c:70: user_interface_PCA();
	ljmp	_user_interface_PCA
00109$:
;	program.c:71: else if (inp == 0x41)
	cjne	r6,#0x41,00106$
	cjne	r7,#0x00,00106$
;	program.c:72: asm_clang();
	ljmp	_asm_clang
00106$:
;	program.c:73: else if (inp == 0x45)
	cjne	r6,#0x45,00101$
	cjne	r7,#0x00,00101$
;	program.c:74: eeprom_menu();
;	program.c:76: goto wrong_choice;
;	program.c:77: }
	ljmp	_eeprom_menu
;------------------------------------------------------------
;Allocation info for local variables in function 'pca_interrupt'
;------------------------------------------------------------
;	program.c:85: void pca_interrupt() __interrupt(6) __using(1)
;	-----------------------------------------
;	 function pca_interrupt
;	-----------------------------------------
_pca_interrupt:
	ar7 = 0x0f
	ar6 = 0x0e
	ar5 = 0x0d
	ar4 = 0x0c
	ar3 = 0x0b
	ar2 = 0x0a
	ar1 = 0x09
	ar0 = 0x08
	push	bits
	push	acc
	push	b
	push	dpl
	push	dph
	push	(0+7)
	push	(0+6)
	push	(0+5)
	push	(0+4)
	push	(0+3)
	push	(0+2)
	push	(0+1)
	push	(0+0)
	push	psw
	mov	psw,#0x08
;	program.c:87: if (CCF0)
	jnb	_CCF0,00102$
;	program.c:89: printf("Captured Value CCPL -> %d CCPH -> %d \n\r", CCAP0L, CCAP0H);
	mov	r6,_CCAP0H
	mov	r7,#0x00
	mov	r4,_CCAP0L
	mov	r5,#0x00
	push	ar6
	push	ar7
	push	ar4
	push	ar5
	mov	a,#___str_9
	push	acc
	mov	a,#(___str_9 >> 8)
	push	acc
	mov	a,#0x80
	push	acc
	mov	psw,#0x00
	lcall	_printf
	mov	psw,#0x08
	mov	a,sp
	add	a,#0xf9
	mov	sp,a
;	program.c:91: CCF0 = 0;
;	assignBit
	clr	_CCF0
00102$:
;	program.c:93: if (CCF1)
;	program.c:95: CCF1 = 0;
;	assignBit
	jbc	_CCF1,00128$
	sjmp	00104$
00128$:
;	program.c:96: CH = 0;
	mov	_CH,#0x00
;	program.c:97: CL = 0;
	mov	_CL,#0x00
00104$:
;	program.c:99: if (CCF2)
;	program.c:101: CCF2 = 0;
;	assignBit
	jbc	_CCF2,00129$
	sjmp	00106$
00129$:
;	program.c:102: CH = 0;
	mov	_CH,#0x00
;	program.c:103: CL = 0;
	mov	_CL,#0x00
;	program.c:104: WDTRST = 0x01E;
	mov	_WDTRST,#0x1e
;	program.c:105: WDTRST = 0x0E1;
	mov	_WDTRST,#0xe1
00106$:
;	program.c:107: if (CCF3)
;	program.c:109: CCF3 = 0;
;	assignBit
	jbc	_CCF3,00130$
	sjmp	00109$
00130$:
;	program.c:110: printf("Timer Interrupt\n\r");
	mov	a,#___str_10
	push	acc
	mov	a,#(___str_10 >> 8)
	push	acc
	mov	a,#0x80
	push	acc
	mov	psw,#0x00
	lcall	_printf
	mov	psw,#0x08
	dec	sp
	dec	sp
	dec	sp
00109$:
;	program.c:112: }
	pop	psw
	pop	(0+0)
	pop	(0+1)
	pop	(0+2)
	pop	(0+3)
	pop	(0+4)
	pop	(0+5)
	pop	(0+6)
	pop	(0+7)
	pop	dph
	pop	dpl
	pop	b
	pop	acc
	pop	bits
	reti
;------------------------------------------------------------
;Allocation info for local variables in function 'idle_interrupt'
;------------------------------------------------------------
;	program.c:119: void idle_interrupt() __interrupt(0) __using(1)
;	-----------------------------------------
;	 function idle_interrupt
;	-----------------------------------------
_idle_interrupt:
	push	bits
	push	acc
	push	b
	push	dpl
	push	dph
	push	(0+7)
	push	(0+6)
	push	(0+5)
	push	(0+4)
	push	(0+3)
	push	(0+2)
	push	(0+1)
	push	(0+0)
	push	psw
	mov	psw,#0x08
;	program.c:121: EX0 = 0;
;	assignBit
	clr	_EX0
;	program.c:122: PCON = 0x80;
	mov	_PCON,#0x80
;	program.c:123: CR = 0;
;	assignBit
	clr	_CR
;	program.c:124: CKRL = 255;
	mov	_CKRL,#0xff
;	program.c:125: CCAPM0 = 0;
;	program.c:126: CCAPM1 = 0;
;	program.c:127: CCAPM2 = 0;
;	program.c:128: CCAPM3 = 0;
;	program.c:129: CCAPM4 = 0;
;	program.c:130: printf("Going to main menu.. \n\r");
	clr	a
	mov	_CCAPM0,a
	mov	_CCAPM1,a
	mov	_CCAPM2,a
	mov	_CCAPM3,a
	mov	_CCAPM4,a
	mov	a,#___str_11
	push	acc
	mov	a,#(___str_11 >> 8)
	push	acc
	mov	a,#0x80
	push	acc
	mov	psw,#0x00
	lcall	_printf
	mov	psw,#0x08
	dec	sp
	dec	sp
	dec	sp
;	program.c:131: main_menu();
	mov	psw,#0x00
	lcall	_main_menu
	mov	psw,#0x08
;	program.c:132: }
	pop	psw
	pop	(0+0)
	pop	(0+1)
	pop	(0+2)
	pop	(0+3)
	pop	(0+4)
	pop	(0+5)
	pop	(0+6)
	pop	(0+7)
	pop	dph
	pop	dpl
	pop	b
	pop	acc
	pop	bits
	reti
;------------------------------------------------------------
;Allocation info for local variables in function 'dataout'
;------------------------------------------------------------
;data                      Allocated with name '_dataout_data_65536_56'
;------------------------------------------------------------
;	program.c:140: void dataout(unsigned char data)
;	-----------------------------------------
;	 function dataout
;	-----------------------------------------
_dataout:
	ar7 = 0x07
	ar6 = 0x06
	ar5 = 0x05
	ar4 = 0x04
	ar3 = 0x03
	ar2 = 0x02
	ar1 = 0x01
	ar0 = 0x00
	mov	a,dpl
	mov	dptr,#_dataout_data_65536_56
	movx	@dptr,a
;	program.c:142: DEBUG_LOC = data;
	movx	a,@dptr
	mov	dptr,#_DEBUG_LOC
	movx	@dptr,a
;	program.c:143: }
	ret
;------------------------------------------------------------
;Allocation info for local variables in function '_sdcc_external_startup'
;------------------------------------------------------------
;	program.c:152: _sdcc_external_startup()
;	-----------------------------------------
;	 function _sdcc_external_startup
;	-----------------------------------------
__sdcc_external_startup:
;	program.c:154: CKCON0 |= 0x1;
	orl	_CKCON0,#0x01
;	program.c:156: _AUXR = 0xC;
	mov	__AUXR,#0x0c
;	program.c:158: SCON = 0x42;
	mov	_SCON,#0x42
;	program.c:160: PCON = 0x80;
	mov	_PCON,#0x80
;	program.c:162: TH1 = 255;
	mov	_TH1,#0xff
;	program.c:163: TL1 = 255;
	mov	_TL1,#0xff
;	program.c:165: TMOD = 0x20;
	mov	_TMOD,#0x20
;	program.c:167: REN = 1;
;	assignBit
	setb	_REN
;	program.c:169: TR1 = 1;
;	assignBit
	setb	_TR1
;	program.c:171: EA = 1;
;	assignBit
	setb	_EA
;	program.c:173: EC = 1;
;	assignBit
	setb	_EC
;	program.c:174: return 0;
	mov	dptr,#0x0000
;	program.c:175: }
	ret
	.area CSEG    (CODE)
	.area CONST   (CODE)
	.area CONST   (CODE)
___str_0:
	.db 0x0a
	.db 0x0d
	.ascii " HELLO! Started in X2 Mode "
	.db 0x0a
	.db 0x0d
	.db 0x00
	.area CSEG    (CODE)
	.area CONST   (CODE)
___str_1:
	.db 0x0a
	.db 0x0a
	.db 0x0d
	.ascii "^^^^^^^^^^^^^^^^^^^-MENU-^^^^^^^^^^^^^^^^^^^^^^^^^^ "
	.db 0x0a
	.db 0x0a
	.db 0x0d
	.db 0x00
	.area CSEG    (CODE)
	.area CONST   (CODE)
___str_2:
	.ascii "'H' -> Heap Demo Mode "
	.db 0x0a
	.db 0x0d
	.db 0x00
	.area CSEG    (CODE)
	.area CONST   (CODE)
___str_3:
	.ascii "'P' -> PCA Demo Mode "
	.db 0x0a
	.db 0x0d
	.db 0x00
	.area CSEG    (CODE)
	.area CONST   (CODE)
___str_4:
	.ascii "'A' -> Assembly C Mix "
	.db 0x0a
	.db 0x0d
	.db 0x00
	.area CSEG    (CODE)
	.area CONST   (CODE)
___str_5:
	.ascii "'E' -> EEPROM Mode "
	.db 0x0a
	.db 0x0d
	.db 0x00
	.area CSEG    (CODE)
	.area CONST   (CODE)
___str_6:
	.ascii "'I' -> I/O Expander Demo Mode "
	.db 0x0a
	.db 0x0d
	.db 0x00
	.area CSEG    (CODE)
	.area CONST   (CODE)
___str_7:
	.ascii "'L' -> LCD Demo Mode "
	.db 0x0a
	.db 0x0d
	.db 0x00
	.area CSEG    (CODE)
	.area CONST   (CODE)
___str_8:
	.ascii "Please make a valid choice "
	.db 0x0a
	.db 0x0d
	.db 0x00
	.area CSEG    (CODE)
	.area CONST   (CODE)
___str_9:
	.ascii "Captured Value CCPL -> %d CCPH -> %d "
	.db 0x0a
	.db 0x0d
	.db 0x00
	.area CSEG    (CODE)
	.area CONST   (CODE)
___str_10:
	.ascii "Timer Interrupt"
	.db 0x0a
	.db 0x0d
	.db 0x00
	.area CSEG    (CODE)
	.area CONST   (CODE)
___str_11:
	.ascii "Going to main menu.. "
	.db 0x0a
	.db 0x0d
	.db 0x00
	.area CSEG    (CODE)
	.area XINIT   (CODE)
__xinit__global_var_test:
	.db #0x02	; 2
	.area CABS    (ABS,CODE)
